target datalayout = "e-m:e-p270:32:32-p271:32:32-p272:64:64-i64:64-i128:128-f80:128-n8:16:32:64-S128"
target triple = "x86_64-pc-linux-gnu"

%union.EX_STYPE = type { ptr }
%struct.Exnode_s = type { i64, i64, i8, %union.anon, %union.Exdata_u, i32 }
%union.anon = type { ptr }
%union.Exdata_u = type { %struct.anon.2 }
%struct.anon.2 = type { ptr, ptr, ptr, ptr }
%struct.Expr_s = type { ptr, ptr, [10 x ptr], ptr, ptr, ptr, ptr, ptr, ptr, %struct.agxbuf, %union.EX_STYPE, %struct.Exid_s, [512 x i8], ptr, i32, i32, i32, i64, i64, i32 }
%struct.agxbuf = type { %union.anon.10 }
%union.anon.10 = type { %struct.anon.11 }
%struct.anon.11 = type { ptr, i64, i64, [7 x i8], i8 }
%struct.Exid_s = type { %struct.dtlink_s_, i64, i64, i64, i64, ptr, ptr, [32 x i8] }
%struct.dtlink_s_ = type { ptr, %union.anon.12 }
%union.anon.12 = type { ptr }
%struct.Exdisc_s = type { i64, i64, ptr, ptr, ptr, ptr, ptr, ptr, ptr, ptr, ptr, ptr, ptr, ptr, ptr, ptr, ptr }
%struct.anon.0 = type { ptr, ptr }
%struct.anon = type { %union.EX_STYPE, ptr }

@.str.50 = private unnamed_addr constant [34 x i8] c"%s: cannot convert %s value to %s\00", align 1

; Function Attrs: nounwind uwtable
define internal void @xConvert(ptr noundef %0, ptr noundef %1, i64 noundef %2, ptr %3, ptr noundef %4) #0 {
  %6 = alloca %union.EX_STYPE, align 8
  %7 = alloca ptr, align 8
  %8 = alloca ptr, align 8
  %9 = alloca i64, align 8
  %10 = alloca ptr, align 8
  %11 = getelementptr inbounds nuw %union.EX_STYPE, ptr %6, i32 0, i32 0
  store ptr %3, ptr %11, align 8
  store ptr %0, ptr %7, align 8, !tbaa !3
  store ptr %1, ptr %8, align 8, !tbaa !8
  store i64 %2, ptr %9, align 8, !tbaa !45
  store ptr %4, ptr %10, align 8, !tbaa !8
  %12 = load ptr, ptr %10, align 8, !tbaa !8
  %13 = load ptr, ptr %8, align 8, !tbaa !8
  %14 = getelementptr inbounds nuw %struct.Exnode_s, ptr %13, i32 0, i32 4
  %15 = getelementptr inbounds nuw %struct.anon.0, ptr %14, i32 0, i32 0
  %16 = load ptr, ptr %15, align 8, !tbaa !11
  call void @llvm.memcpy.p0.p0.i64(ptr align 8 %12, ptr align 8 %16, i64 72, i1 false), !tbaa.struct !76
  %17 = load ptr, ptr %10, align 8, !tbaa !8
  %18 = getelementptr inbounds nuw %struct.Exnode_s, ptr %17, i32 0, i32 4
  %19 = getelementptr inbounds nuw %struct.anon, ptr %18, i32 0, i32 0
  call void @llvm.memcpy.p0.p0.i64(ptr align 8 %19, ptr align 8 %6, i64 8, i1 false), !tbaa.struct !34
  %20 = load ptr, ptr %7, align 8, !tbaa !3
  %21 = getelementptr inbounds nuw %struct.Expr_s, ptr %20, i32 0, i32 6
  %22 = load ptr, ptr %21, align 8, !tbaa !17
  %23 = getelementptr inbounds nuw %struct.Exdisc_s, ptr %22, i32 0, i32 5
  %24 = load ptr, ptr %23, align 8, !tbaa !79
  %25 = load ptr, ptr %10, align 8, !tbaa !8
  %26 = load i64, ptr %9, align 8, !tbaa !45
  %27 = call i32 %24(ptr noundef %25, i64 noundef %26, i32 noundef 0)
  %28 = icmp ne i32 %27, 0
  br i1 %28, label %29, label %50

29:                                               ; preds = %5
  %30 = load ptr, ptr %8, align 8, !tbaa !8
  %31 = getelementptr inbounds nuw %struct.Exnode_s, ptr %30, i32 0, i32 4
  %32 = getelementptr inbounds nuw %struct.anon.0, ptr %31, i32 0, i32 0
  %33 = load ptr, ptr %32, align 8, !tbaa !11
  %34 = getelementptr inbounds nuw %struct.Exnode_s, ptr %33, i32 0, i32 4
  %35 = getelementptr inbounds nuw %struct.anon.2, ptr %34, i32 0, i32 0
  %36 = load ptr, ptr %35, align 8, !tbaa !11
  %37 = getelementptr inbounds nuw %struct.Exid_s, ptr %36, i32 0, i32 7
  %38 = getelementptr inbounds [32 x i8], ptr %37, i64 0, i64 0
  %39 = load ptr, ptr %7, align 8, !tbaa !3
  %40 = load ptr, ptr %8, align 8, !tbaa !8
  %41 = getelementptr inbounds nuw %struct.Exnode_s, ptr %40, i32 0, i32 4
  %42 = getelementptr inbounds nuw %struct.anon.0, ptr %41, i32 0, i32 0
  %43 = load ptr, ptr %42, align 8, !tbaa !11
  %44 = getelementptr inbounds nuw %struct.Exnode_s, ptr %43, i32 0, i32 0
  %45 = load i64, ptr %44, align 8, !tbaa !12
  %46 = call ptr @extypename(ptr noundef %39, i64 noundef %45)
  %47 = load ptr, ptr %7, align 8, !tbaa !3
  %48 = load i64, ptr %9, align 8, !tbaa !45
  %49 = call ptr @extypename(ptr noundef %47, i64 noundef %48)
  call void (ptr, ...) @exerror(ptr noundef @.str.50, ptr noundef %38, ptr noundef %46, ptr noundef %49)
  br label %50

50:                                               ; preds = %29, %5
  %51 = load i64, ptr %9, align 8, !tbaa !45
  %52 = load ptr, ptr %10, align 8, !tbaa !8
  %53 = getelementptr inbounds nuw %struct.Exnode_s, ptr %52, i32 0, i32 0
  store i64 %51, ptr %53, align 8, !tbaa !12
  ret void
}