; Function Attrs: nounwind uwtable
define internal fastcc void @xConvert(ptr noundef %0, ptr noundef nonnull readonly captures(none) %1, i64 noundef %2, ptr %3, ptr noundef nonnull initializes((0, 72)) %4) unnamed_addr #0 {
  %6 = getelementptr inbounds nuw i8, ptr %1, i64 32
  %7 = load ptr, ptr %6, align 8, !tbaa !3
  tail call void @llvm.memcpy.p0.p0.i64(ptr noundef nonnull align 8 dereferenceable(72) %4, ptr noundef nonnull align 8 dereferenceable(72) %7, i64 72, i1 false), !tbaa.struct !69
  %8 = getelementptr inbounds nuw i8, ptr %4, i64 32
  store ptr %3, ptr %8, align 8, !tbaa !3
  %9 = getelementptr inbounds nuw i8, ptr %0, i64 120
  %10 = load ptr, ptr %9, align 8, !tbaa !11
  %11 = getelementptr inbounds nuw i8, ptr %10, i64 40
  %12 = load ptr, ptr %11, align 8, !tbaa !73
  %13 = tail call i32 %12(ptr noundef nonnull %4, i64 noundef %2, i32 noundef 0) #25
  %.not = icmp eq i32 %13, 0
  br i1 %.not, label %22, label %14

14:                                               ; preds = %5
  %15 = load ptr, ptr %6, align 8, !tbaa !3
  %16 = getelementptr inbounds nuw i8, ptr %15, i64 32
  %17 = load ptr, ptr %16, align 8, !tbaa !3
  %18 = getelementptr inbounds nuw i8, ptr %17, i64 64
  %19 = load i64, ptr %15, align 8, !tbaa !6
  %20 = tail call ptr @extypename(ptr noundef nonnull %0, i64 noundef %19) #25
  %21 = tail call ptr @extypename(ptr noundef nonnull %0, i64 noundef %2) #25
  tail call void (ptr, ...) @exerror(ptr noundef nonnull @.str.50, ptr noundef nonnull %18, ptr noundef %20, ptr noundef %21) #25
  br label %22

22:                                               ; preds = %14, %5
  store i64 %2, ptr %4, align 8, !tbaa !6
  ret void
}